; Function Attrs: mustprogress uwtable
define void @_ZN10PacketList22markAllDisplayedFramesEb(ptr noundef nonnull align 8 dereferenceable(464) %0, i1 noundef zeroext %1) local_unnamed_addr #0 align 2 {
  %3 = getelementptr inbounds i8, ptr %0, i64 64
  %4 = load ptr, ptr %3, align 8
  %.not = icmp eq ptr %4, null
  br i1 %.not, label %11, label %5

5:                                                ; preds = %2
  %6 = getelementptr inbounds i8, ptr %0, i64 40
  %7 = load ptr, ptr %6, align 8
  %.not1 = icmp eq ptr %7, null
  br i1 %.not1, label %11, label %8

8:                                                ; preds = %5
  %9 = zext i1 %1 to i32
  tail call void @_ZN15PacketListModel21setDisplayedFrameMarkEi(ptr noundef nonnull align 8 dereferenceable(164) %7, i32 noundef %9)
  tail call void @_ZN10PacketList20redrawVisiblePacketsEv(ptr noundef nonnull align 8 dereferenceable(464) %0)
  %10 = getelementptr inbounds i8, ptr %0, i64 237
  store i8 1, ptr %10, align 1
  tail call void @packets_bar_update()
  br label %11

11:                                               ; preds = %2, %5, %8
  ret void
}